target datalayout = "e-m:e-p270:32:32-p271:32:32-p272:64:64-i64:64-i128:128-f80:128-n8:16:32:64-S128"
target triple = "x86_64-unknown-linux-gnu"

%struct.napi_env__ = type <{ ptr, ptr, %"class.v8::Global", %"class.v8::Global.0", %"class.v8impl::RefTracker", %"class.v8impl::RefTracker", %"class.std::unordered_set", %struct.napi_extended_error_info, i32, i32, i32, [4 x i8], ptr, i32, i8, [3 x i8] }>
%"class.v8::Global" = type { %"class.v8::PersistentBase" }
%"class.v8::PersistentBase" = type { %"class.v8::IndirectHandleBase" }
%"class.v8::IndirectHandleBase" = type { ptr }
%"class.v8::Global.0" = type { %"class.v8::PersistentBase.1" }
%"class.v8::PersistentBase.1" = type { %"class.v8::IndirectHandleBase" }
%"class.v8impl::RefTracker" = type { ptr, ptr, ptr }
%"class.std::unordered_set" = type { %"class.std::_Hashtable" }
%"class.std::_Hashtable" = type { ptr, i64, %"struct.std::__detail::_Hash_node_base", i64, %"struct.std::__detail::_Prime_rehash_policy", ptr }
%"struct.std::__detail::_Hash_node_base" = type { ptr }
%"struct.std::__detail::_Prime_rehash_policy" = type { float, i64 }
%struct.napi_extended_error_info = type { ptr, ptr, i32, i32 }
%"class.v8::Local" = type { %"class.v8::LocalBase" }
%"class.v8::LocalBase" = type { %"class.v8::IndirectHandleBase" }
%"class.v8::LocalBase.48" = type { %"class.v8::IndirectHandleBase" }
%"class.v8::Local.47" = type { %"class.v8::LocalBase.48" }

; Function Attrs: mustprogress nounwind uwtable
define linkonce_odr dso_local noundef i32 @_Z21napi_clear_last_errorP10napi_env__(ptr noundef %env) #4 comdat {
entry:
  %env.addr = alloca ptr, align 8
  store ptr %env, ptr %env.addr, align 8
  %0 = load ptr, ptr %env.addr, align 8
  %last_error = getelementptr inbounds %struct.napi_env__, ptr %0, i32 0, i32 7
  %error_code = getelementptr inbounds %struct.napi_extended_error_info, ptr %last_error, i32 0, i32 3
  store i32 0, ptr %error_code, align 4
  %1 = load ptr, ptr %env.addr, align 8
  %last_error1 = getelementptr inbounds %struct.napi_env__, ptr %1, i32 0, i32 7
  %engine_error_code = getelementptr inbounds %struct.napi_extended_error_info, ptr %last_error1, i32 0, i32 2
  store i32 0, ptr %engine_error_code, align 8
  %2 = load ptr, ptr %env.addr, align 8
  %last_error2 = getelementptr inbounds %struct.napi_env__, ptr %2, i32 0, i32 7
  %engine_reserved = getelementptr inbounds %struct.napi_extended_error_info, ptr %last_error2, i32 0, i32 1
  store ptr null, ptr %engine_reserved, align 8
  %3 = load ptr, ptr %env.addr, align 8
  %last_error3 = getelementptr inbounds %struct.napi_env__, ptr %3, i32 0, i32 7
  %error_message = getelementptr inbounds %struct.napi_extended_error_info, ptr %last_error3, i32 0, i32 0
  store ptr null, ptr %error_message, align 8
  ret i32 0
}

; Function Attrs: mustprogress nounwind uwtable
define linkonce_odr dso_local noundef ptr @_ZN6v8impl23JsValueFromV8LocalValueEN2v85LocalINS0_5ValueEEE(ptr %local.coerce) #4 comdat {
entry:
  %slot.addr.i = alloca ptr, align 8
  %this.addr.i.i3 = alloca ptr, align 8
  %this.addr.i4 = alloca ptr, align 8
  %this.addr.i.i = alloca ptr, align 8
  %this.addr.i = alloca ptr, align 8
  %local = alloca %"class.v8::Local", align 8
  %coerce.dive = getelementptr inbounds %"class.v8::Local", ptr %local, i32 0, i32 0
  %coerce.dive1 = getelementptr inbounds %"class.v8::LocalBase", ptr %coerce.dive, i32 0, i32 0
  %coerce.dive2 = getelementptr inbounds %"class.v8::IndirectHandleBase", ptr %coerce.dive1, i32 0, i32 0
  store ptr %local.coerce, ptr %coerce.dive2, align 8
  store ptr %local, ptr %this.addr.i, align 8
  %this1.i = load ptr, ptr %this.addr.i, align 8
  store ptr %this1.i, ptr %this.addr.i.i, align 8
  %this1.i.i = load ptr, ptr %this.addr.i.i, align 8
  store ptr %this1.i.i, ptr %this.addr.i4, align 8
  %this1.i5 = load ptr, ptr %this.addr.i4, align 8
  store ptr %this1.i5, ptr %this.addr.i.i3, align 8
  %this1.i.i6 = load ptr, ptr %this.addr.i.i3, align 8
  %0 = load ptr, ptr %this1.i.i6, align 8
  store ptr %0, ptr %slot.addr.i, align 8
  %1 = load ptr, ptr %slot.addr.i, align 8
  ret ptr %1
}

; Function Attrs: mustprogress nounwind uwtable
define linkonce_odr dso_local noundef i32 @_Z19napi_set_last_errorP10napi_env__11napi_statusjPv(ptr noundef %env, i32 noundef %error_code, i32 noundef %engine_error_code, ptr noundef %engine_reserved) #4 comdat {
entry:
  %env.addr = alloca ptr, align 8
  %error_code.addr = alloca i32, align 4
  %engine_error_code.addr = alloca i32, align 4
  %engine_reserved.addr = alloca ptr, align 8
  store ptr %env, ptr %env.addr, align 8
  store i32 %error_code, ptr %error_code.addr, align 4
  store i32 %engine_error_code, ptr %engine_error_code.addr, align 4
  store ptr %engine_reserved, ptr %engine_reserved.addr, align 8
  %0 = load i32, ptr %error_code.addr, align 4
  %1 = load ptr, ptr %env.addr, align 8
  %last_error = getelementptr inbounds %struct.napi_env__, ptr %1, i32 0, i32 7
  %error_code1 = getelementptr inbounds %struct.napi_extended_error_info, ptr %last_error, i32 0, i32 3
  store i32 %0, ptr %error_code1, align 4
  %2 = load i32, ptr %engine_error_code.addr, align 4
  %3 = load ptr, ptr %env.addr, align 8
  %last_error2 = getelementptr inbounds %struct.napi_env__, ptr %3, i32 0, i32 7
  %engine_error_code3 = getelementptr inbounds %struct.napi_extended_error_info, ptr %last_error2, i32 0, i32 2
  store i32 %2, ptr %engine_error_code3, align 8
  %4 = load ptr, ptr %engine_reserved.addr, align 8
  %5 = load ptr, ptr %env.addr, align 8
  %last_error4 = getelementptr inbounds %struct.napi_env__, ptr %5, i32 0, i32 7
  %engine_reserved5 = getelementptr inbounds %struct.napi_extended_error_info, ptr %last_error4, i32 0, i32 1
  store ptr %4, ptr %engine_reserved5, align 8
  %6 = load i32, ptr %error_code.addr, align 4
  ret i32 %6
}

; Function Attrs: mustprogress nounwind uwtable
define linkonce_odr dso_local void @_ZN10napi_env__13CheckGCAccessEv(ptr noundef nonnull align 8 dereferenceable(189) %this) #4 comdat align 2 {
entry:
  %this.addr = alloca ptr, align 8
  store ptr %this, ptr %this.addr, align 8
  %this1 = load ptr, ptr %this.addr, align 8
  %module_api_version = getelementptr inbounds %struct.napi_env__, ptr %this1, i32 0, i32 13
  %0 = load i32, ptr %module_api_version, align 8
  %cmp = icmp eq i32 %0, 2147483647
  br i1 %cmp, label %land.lhs.true, label %if.end

land.lhs.true:                                    ; preds = %entry
  %in_gc_finalizer = getelementptr inbounds %struct.napi_env__, ptr %this1, i32 0, i32 14
  %1 = load i8, ptr %in_gc_finalizer, align 4
  %tobool = trunc i8 %1 to i1
  br i1 %tobool, label %if.then, label %if.end

if.then:                                          ; preds = %land.lhs.true
  call void @_ZN6v8impl12OnFatalErrorEPKcS1_(ptr noundef null, ptr noundef @.str.41) #17
  unreachable

if.end:                                           ; preds = %land.lhs.true, %entry
  ret void
}

; Function Attrs: mustprogress nounwind uwtable
define dso_local i32 @napi_get_null(ptr noundef %env, ptr noundef %result) #4 {
entry:
  %this.addr.i28 = alloca ptr, align 8
  %other.addr.i29 = alloca ptr, align 8
  %this.addr.i.i = alloca ptr, align 8
  %location.addr.i.i = alloca ptr, align 8
  %this.addr.i26 = alloca ptr, align 8
  %location.addr.i = alloca ptr, align 8
  %this.addr.i25 = alloca ptr, align 8
  %other.addr.i = alloca ptr, align 8
  %retval.i23 = alloca %"class.v8::LocalBase.48", align 8
  %slot.addr.i24 = alloca ptr, align 8
  %retval.i22 = alloca %"class.v8::Local.47", align 8
  %slot.addr.i = alloca ptr, align 8
  %ref.tmp.i = alloca %"class.v8::LocalBase.48", align 8
  %isolate.addr.i21 = alloca ptr, align 8
  %isolate.addr.i20 = alloca ptr, align 8
  %index.addr.i = alloca i32, align 4
  %addr.i = alloca i64, align 8
  %retval.i = alloca %"class.v8::Local.47", align 8
  %isolate.addr.i = alloca ptr, align 8
  %slot.i = alloca ptr, align 8
  %that.i = alloca %"class.v8::Local.47", align 8
  %this.addr.i = alloca ptr, align 8
  %retval = alloca i32, align 4
  %env.addr = alloca ptr, align 8
  %result.addr = alloca ptr, align 8
  %agg.tmp = alloca %"class.v8::Local", align 8
  %agg.tmp8 = alloca %"class.v8::Local.47", align 8
  store ptr %env, ptr %env.addr, align 8
  store ptr %result, ptr %result.addr, align 8
  br label %do.body

do.body:                                          ; preds = %entry
  br label %do.body1

do.body1:                                         ; preds = %do.body
  %0 = load ptr, ptr %env.addr, align 8
  %cmp = icmp eq ptr %0, null
  br i1 %cmp, label %if.then, label %if.end

if.then:                                          ; preds = %do.body1
  store i32 1, ptr %retval, align 4
  br label %return

if.end:                                           ; preds = %do.body1
  br label %do.end

do.end:                                           ; preds = %if.end
  %1 = load ptr, ptr %env.addr, align 8
  call void @_ZN10napi_env__13CheckGCAccessEv(ptr noundef nonnull align 8 dereferenceable(189) %1)
  br label %do.end2

do.end2:                                          ; preds = %do.end
  br label %do.body3

do.body3:                                         ; preds = %do.end2
  %2 = load ptr, ptr %result.addr, align 8
  %cmp4 = icmp ne ptr %2, null
  br i1 %cmp4, label %if.end6, label %if.then5

if.then5:                                         ; preds = %do.body3
  %3 = load ptr, ptr %env.addr, align 8
  %call = call noundef i32 @_Z19napi_set_last_errorP10napi_env__11napi_statusjPv(ptr noundef %3, i32 noundef 1, i32 noundef 0, ptr noundef null)
  store i32 %call, ptr %retval, align 4
  br label %return

if.end6:                                          ; preds = %do.body3
  br label %do.end7

do.end7:                                          ; preds = %if.end6
  %4 = load ptr, ptr %env.addr, align 8
  %isolate = getelementptr inbounds %struct.napi_env__, ptr %4, i32 0, i32 1
  %5 = load ptr, ptr %isolate, align 8
  store ptr %5, ptr %isolate.addr.i, align 8
  %6 = load ptr, ptr %isolate.addr.i, align 8
  store ptr %6, ptr %isolate.addr.i21, align 8
  %7 = load ptr, ptr %isolate.addr.i, align 8
  store ptr %7, ptr %isolate.addr.i20, align 8
  store i32 6, ptr %index.addr.i, align 4
  %8 = load ptr, ptr %isolate.addr.i20, align 8
  %9 = ptrtoint ptr %8 to i64
  %add.i = add i64 %9, 576
  %10 = load i32, ptr %index.addr.i, align 4
  %mul.i = mul nsw i32 %10, 8
  %conv.i = sext i32 %mul.i to i64
  %add1.i = add i64 %add.i, %conv.i
  store i64 %add1.i, ptr %addr.i, align 8
  %11 = load i64, ptr %addr.i, align 8
  %12 = inttoptr i64 %11 to ptr
  store ptr %12, ptr %slot.i, align 8
  %13 = load ptr, ptr %slot.i, align 8
  store ptr %13, ptr %slot.addr.i, align 8
  %14 = load ptr, ptr %slot.addr.i, align 8
  store ptr %14, ptr %slot.addr.i24, align 8
  %15 = load ptr, ptr %slot.addr.i24, align 8
  store ptr %retval.i23, ptr %this.addr.i26, align 8
  store ptr %15, ptr %location.addr.i, align 8
  %this1.i27 = load ptr, ptr %this.addr.i26, align 8
  %16 = load ptr, ptr %location.addr.i, align 8
  store ptr %this1.i27, ptr %this.addr.i.i, align 8
  store ptr %16, ptr %location.addr.i.i, align 8
  %this1.i.i = load ptr, ptr %this.addr.i.i, align 8
  %17 = load ptr, ptr %location.addr.i.i, align 8
  store ptr %17, ptr %this1.i.i, align 8
  %18 = load ptr, ptr %retval.i23, align 8
  store ptr %18, ptr %ref.tmp.i, align 8
  store ptr %retval.i22, ptr %this.addr.i25, align 8
  store ptr %ref.tmp.i, ptr %other.addr.i, align 8
  %this1.i = load ptr, ptr %this.addr.i25, align 8
  %19 = load ptr, ptr %other.addr.i, align 8
  call void @llvm.memcpy.p0.p0.i64(ptr align 8 %this1.i, ptr align 8 %19, i64 8, i1 false)
  %20 = load ptr, ptr %retval.i22, align 8
  store ptr %20, ptr %retval.i, align 8
  %21 = load ptr, ptr %retval.i, align 8
  %coerce.dive = getelementptr inbounds %"class.v8::Local.47", ptr %agg.tmp8, i32 0, i32 0
  %coerce.dive10 = getelementptr inbounds %"class.v8::LocalBase.48", ptr %coerce.dive, i32 0, i32 0
  %coerce.dive11 = getelementptr inbounds %"class.v8::IndirectHandleBase", ptr %coerce.dive10, i32 0, i32 0
  store ptr %21, ptr %coerce.dive11, align 8
  %coerce.dive12 = getelementptr inbounds %"class.v8::Local.47", ptr %agg.tmp8, i32 0, i32 0
  %coerce.dive13 = getelementptr inbounds %"class.v8::LocalBase.48", ptr %coerce.dive12, i32 0, i32 0
  %coerce.dive14 = getelementptr inbounds %"class.v8::IndirectHandleBase", ptr %coerce.dive13, i32 0, i32 0
  %22 = load ptr, ptr %coerce.dive14, align 8
  store ptr %22, ptr %that.i, align 8
  store ptr %agg.tmp, ptr %this.addr.i, align 8
  %this3.i = load ptr, ptr %this.addr.i, align 8
  store ptr %this3.i, ptr %this.addr.i28, align 8
  store ptr %that.i, ptr %other.addr.i29, align 8
  %this1.i30 = load ptr, ptr %this.addr.i28, align 8
  %23 = load ptr, ptr %other.addr.i29, align 8
  call void @llvm.memcpy.p0.p0.i64(ptr align 8 %this1.i30, ptr align 8 %23, i64 8, i1 false)
  %coerce.dive15 = getelementptr inbounds %"class.v8::Local", ptr %agg.tmp, i32 0, i32 0
  %coerce.dive16 = getelementptr inbounds %"class.v8::LocalBase", ptr %coerce.dive15, i32 0, i32 0
  %coerce.dive17 = getelementptr inbounds %"class.v8::IndirectHandleBase", ptr %coerce.dive16, i32 0, i32 0
  %24 = load ptr, ptr %coerce.dive17, align 8
  %call18 = call noundef ptr @_ZN6v8impl23JsValueFromV8LocalValueEN2v85LocalINS0_5ValueEEE(ptr %24)
  %25 = load ptr, ptr %result.addr, align 8
  store ptr %call18, ptr %25, align 8
  %26 = load ptr, ptr %env.addr, align 8
  %call19 = call noundef i32 @_Z21napi_clear_last_errorP10napi_env__(ptr noundef %26)
  store i32 %call19, ptr %retval, align 4
  br label %return

return:                                           ; preds = %do.end7, %if.then5, %if.then
  %27 = load i32, ptr %retval, align 4
  ret i32 %27
}